target datalayout = "e-m:e-p270:32:32-p271:32:32-p272:64:64-i64:64-i128:128-f80:128-n8:16:32:64-S128"
target triple = "x86_64-pc-linux-gnu"

%struct.Gia_Man_t_ = type { ptr, ptr, i32, i32, i32, i32, ptr, ptr, i32, i32, i32, ptr, ptr, %struct.Vec_Int_t_, %struct.Vec_Int_t_, i32, i32, i32, %struct.Vec_Int_t_, ptr, ptr, ptr, i32, i32, i32, i32, ptr, ptr, ptr, ptr, ptr, i32, i32, ptr, i32, ptr, ptr, ptr, ptr, ptr, ptr, ptr, ptr, ptr, ptr, ptr, ptr, ptr, ptr, ptr, ptr, ptr, ptr, %struct.Vec_Int_t_, %struct.Vec_Int_t_, ptr, ptr, ptr, ptr, ptr, ptr, ptr, ptr, ptr, ptr, ptr, ptr, ptr, ptr, ptr, ptr, ptr, ptr, ptr, ptr, ptr, i32, float, float, ptr, ptr, i32, ptr, ptr, ptr, ptr, ptr, ptr, ptr, ptr, ptr, ptr, ptr, ptr, ptr, ptr, ptr, i64, i64, ptr, ptr, i32, i32, i32, i32, i32, i32, i32, i32, i32, i32, i32, i32, ptr, ptr, ptr, ptr, ptr, ptr, ptr, ptr, i32, i32, i32, ptr, i32, i32, ptr, ptr, ptr, ptr, ptr, ptr, i32, i32, ptr, %struct.Vec_Int_t_, %struct.Vec_Int_t_, %struct.Vec_Int_t_, ptr, ptr, ptr }
%struct.Vec_Int_t_ = type { i32, i32, ptr }
%struct.Gia_Obj_t_ = type <{ i64, i32 }>

; Function Attrs: nounwind uwtable
define internal i32 @Vec_IntEntry(ptr noundef %0, i32 noundef %1) #0 {
  %3 = alloca ptr, align 8
  %4 = alloca i32, align 4
  store ptr %0, ptr %3, align 8
  store i32 %1, ptr %4, align 4
  %5 = load ptr, ptr %3, align 8
  %6 = getelementptr inbounds %struct.Vec_Int_t_, ptr %5, i32 0, i32 2
  %7 = load ptr, ptr %6, align 8
  %8 = load i32, ptr %4, align 4
  %9 = sext i32 %8 to i64
  %10 = getelementptr inbounds i32, ptr %7, i64 %9
  %11 = load i32, ptr %10, align 4
  ret i32 %11
}

; Function Attrs: nounwind uwtable
define internal i32 @Gia_ObjCopy2Array(ptr noundef %0, i32 noundef %1) #0 {
  %3 = alloca ptr, align 8
  %4 = alloca i32, align 4
  store ptr %0, ptr %3, align 8
  store i32 %1, ptr %4, align 4
  %5 = load ptr, ptr %3, align 8
  %6 = getelementptr inbounds %struct.Gia_Man_t_, ptr %5, i32 0, i32 54
  %7 = load i32, ptr %4, align 4
  %8 = call i32 @Vec_IntEntry(ptr noundef %6, i32 noundef %7)
  ret i32 %8
}

; Function Attrs: nounwind uwtable
define internal i32 @Gia_ObjId(ptr noundef %0, ptr noundef %1) #0 {
  %3 = alloca ptr, align 8
  %4 = alloca ptr, align 8
  store ptr %0, ptr %3, align 8
  store ptr %1, ptr %4, align 8
  %5 = load ptr, ptr %4, align 8
  %6 = load ptr, ptr %3, align 8
  %7 = getelementptr inbounds %struct.Gia_Man_t_, ptr %6, i32 0, i32 6
  %8 = load ptr, ptr %7, align 8
  %9 = ptrtoint ptr %5 to i64
  %10 = ptrtoint ptr %8 to i64
  %11 = sub i64 %9, %10
  %12 = sdiv exact i64 %11, 12
  %13 = trunc i64 %12 to i32
  ret i32 %13
}

; Function Attrs: nounwind uwtable
define internal i32 @Gia_ObjFaninC1(ptr noundef %0) #0 {
  %2 = alloca ptr, align 8
  store ptr %0, ptr %2, align 8
  %3 = load ptr, ptr %2, align 8
  %4 = load i64, ptr %3, align 4
  %5 = lshr i64 %4, 61
  %6 = and i64 %5, 1
  %7 = trunc i64 %6 to i32
  ret i32 %7
}

; Function Attrs: nounwind uwtable
define internal i32 @Gia_ObjFaninId1(ptr noundef %0, i32 noundef %1) #0 {
  %3 = alloca ptr, align 8
  %4 = alloca i32, align 4
  store ptr %0, ptr %3, align 8
  store i32 %1, ptr %4, align 4
  %5 = load i32, ptr %4, align 4
  %6 = load ptr, ptr %3, align 8
  %7 = load i64, ptr %6, align 4
  %8 = lshr i64 %7, 32
  %9 = and i64 %8, 536870911
  %10 = trunc i64 %9 to i32
  %11 = sub nsw i32 %5, %10
  ret i32 %11
}

; Function Attrs: nounwind uwtable
define internal i32 @Gia_ObjFaninC0(ptr noundef %0) #0 {
  %2 = alloca ptr, align 8
  store ptr %0, ptr %2, align 8
  %3 = load ptr, ptr %2, align 8
  %4 = load i64, ptr %3, align 4
  %5 = lshr i64 %4, 29
  %6 = and i64 %5, 1
  %7 = trunc i64 %6 to i32
  ret i32 %7
}

; Function Attrs: nounwind uwtable
define internal i32 @Gia_ObjFaninId0(ptr noundef %0, i32 noundef %1) #0 {
  %3 = alloca ptr, align 8
  %4 = alloca i32, align 4
  store ptr %0, ptr %3, align 8
  store i32 %1, ptr %4, align 4
  %5 = load i32, ptr %4, align 4
  %6 = load ptr, ptr %3, align 8
  %7 = load i64, ptr %6, align 4
  %8 = and i64 %7, 536870911
  %9 = trunc i64 %8 to i32
  %10 = sub nsw i32 %5, %9
  ret i32 %10
}

; Function Attrs: nounwind uwtable
define internal i32 @Cec2_ObjSatId(ptr noundef %0, ptr noundef %1) #0 {
  %3 = alloca ptr, align 8
  %4 = alloca ptr, align 8
  store ptr %0, ptr %3, align 8
  store ptr %1, ptr %4, align 8
  %5 = load ptr, ptr %3, align 8
  %6 = load ptr, ptr %3, align 8
  %7 = load ptr, ptr %4, align 8
  %8 = call i32 @Gia_ObjId(ptr noundef %6, ptr noundef %7)
  %9 = call i32 @Gia_ObjCopy2Array(ptr noundef %5, i32 noundef %8)
  ret i32 %9
}

; Function Attrs: nounwind uwtable
define internal i32 @Gia_ObjIsCi(ptr noundef %0) #0 {
  %2 = alloca ptr, align 8
  store ptr %0, ptr %2, align 8
  %3 = load ptr, ptr %2, align 8
  %4 = load i64, ptr %3, align 4
  %5 = lshr i64 %4, 31
  %6 = and i64 %5, 1
  %7 = trunc i64 %6 to i32
  %8 = icmp ne i32 %7, 0
  br i1 %8, label %9, label %15

9:                                                ; preds = %1
  %10 = load ptr, ptr %2, align 8
  %11 = load i64, ptr %10, align 4
  %12 = and i64 %11, 536870911
  %13 = trunc i64 %12 to i32
  %14 = icmp eq i32 %13, 536870911
  br label %15

15:                                               ; preds = %9, %1
  %16 = phi i1 [ false, %1 ], [ %14, %9 ]
  %17 = zext i1 %16 to i32
  ret i32 %17
}

; Function Attrs: nounwind uwtable
define internal void @Gia_ObjSetTravIdCurrentId(ptr noundef %0, i32 noundef %1) #0 {
  %3 = alloca ptr, align 8
  %4 = alloca i32, align 4
  store ptr %0, ptr %3, align 8
  store i32 %1, ptr %4, align 4
  %5 = load ptr, ptr %3, align 8
  %6 = getelementptr inbounds %struct.Gia_Man_t_, ptr %5, i32 0, i32 24
  %7 = load i32, ptr %6, align 8
  %8 = load ptr, ptr %3, align 8
  %9 = getelementptr inbounds %struct.Gia_Man_t_, ptr %8, i32 0, i32 80
  %10 = load ptr, ptr %9, align 8
  %11 = load i32, ptr %4, align 4
  %12 = sext i32 %11 to i64
  %13 = getelementptr inbounds i32, ptr %10, i64 %12
  store i32 %7, ptr %13, align 4
  ret void
}

; Function Attrs: nounwind uwtable
define internal i32 @Gia_ObjIsTravIdCurrentId(ptr noundef %0, i32 noundef %1) #0 {
  %3 = alloca ptr, align 8
  %4 = alloca i32, align 4
  store ptr %0, ptr %3, align 8
  store i32 %1, ptr %4, align 4
  %5 = load ptr, ptr %3, align 8
  %6 = getelementptr inbounds %struct.Gia_Man_t_, ptr %5, i32 0, i32 80
  %7 = load ptr, ptr %6, align 8
  %8 = load i32, ptr %4, align 4
  %9 = sext i32 %8 to i64
  %10 = getelementptr inbounds i32, ptr %7, i64 %9
  %11 = load i32, ptr %10, align 4
  %12 = load ptr, ptr %3, align 8
  %13 = getelementptr inbounds %struct.Gia_Man_t_, ptr %12, i32 0, i32 24
  %14 = load i32, ptr %13, align 8
  %15 = icmp eq i32 %11, %14
  %16 = zext i1 %15 to i32
  ret i32 %16
}

; Function Attrs: nounwind uwtable
define internal ptr @Gia_ManObj(ptr noundef %0, i32 noundef %1) #0 {
  %3 = alloca ptr, align 8
  %4 = alloca i32, align 4
  store ptr %0, ptr %3, align 8
  store i32 %1, ptr %4, align 4
  %5 = load ptr, ptr %3, align 8
  %6 = getelementptr inbounds %struct.Gia_Man_t_, ptr %5, i32 0, i32 6
  %7 = load ptr, ptr %6, align 8
  %8 = load i32, ptr %4, align 4
  %9 = sext i32 %8 to i64
  %10 = getelementptr inbounds %struct.Gia_Obj_t_, ptr %7, i64 %9
  ret ptr %10
}

; Function Attrs: nounwind uwtable
define i32 @Cec2_ManVerify_rec(ptr noundef %0, i32 noundef %1, ptr noundef %2) #0 {
  %4 = alloca i32, align 4
  %5 = alloca ptr, align 8
  %6 = alloca i32, align 4
  %7 = alloca ptr, align 8
  %8 = alloca i32, align 4
  %9 = alloca i32, align 4
  %10 = alloca ptr, align 8
  store ptr %0, ptr %5, align 8
  store i32 %1, ptr %6, align 4
  store ptr %2, ptr %7, align 8
  %11 = load ptr, ptr %5, align 8
  %12 = load i32, ptr %6, align 4
  %13 = call ptr @Gia_ManObj(ptr noundef %11, i32 noundef %12)
  store ptr %13, ptr %10, align 8
  %14 = load i32, ptr %6, align 4
  %15 = icmp eq i32 %14, 0
  br i1 %15, label %16, label %17

16:                                               ; preds = %3
  store i32 0, ptr %4, align 4
  br label %81

17:                                               ; preds = %3
  %18 = load ptr, ptr %5, align 8
  %19 = load i32, ptr %6, align 4
  %20 = call i32 @Gia_ObjIsTravIdCurrentId(ptr noundef %18, i32 noundef %19)
  %21 = icmp ne i32 %20, 0
  br i1 %21, label %22, label %28

22:                                               ; preds = %17
  %23 = load ptr, ptr %10, align 8
  %24 = load i64, ptr %23, align 4
  %25 = lshr i64 %24, 62
  %26 = and i64 %25, 1
  %27 = trunc i64 %26 to i32
  store i32 %27, ptr %4, align 4
  br label %81

28:                                               ; preds = %17
  %29 = load ptr, ptr %5, align 8
  %30 = load i32, ptr %6, align 4
  call void @Gia_ObjSetTravIdCurrentId(ptr noundef %29, i32 noundef %30)
  %31 = load ptr, ptr %10, align 8
  %32 = call i32 @Gia_ObjIsCi(ptr noundef %31)
  %33 = icmp ne i32 %32, 0
  br i1 %33, label %34, label %51

34:                                               ; preds = %28
  %35 = load ptr, ptr %7, align 8
  %36 = load ptr, ptr %5, align 8
  %37 = load ptr, ptr %10, align 8
  %38 = call i32 @Cec2_ObjSatId(ptr noundef %36, ptr noundef %37)
  %39 = call signext i8 @satoko_var_polarity(ptr noundef %35, i32 noundef %38)
  %40 = sext i8 %39 to i32
  %41 = icmp eq i32 %40, 0
  %42 = zext i1 %41 to i32
  %43 = load ptr, ptr %10, align 8
  %44 = zext i32 %42 to i64
  %45 = load i64, ptr %43, align 4
  %46 = and i64 %44, 1
  %47 = shl i64 %46, 62
  %48 = and i64 %45, -4611686018427387905
  %49 = or i64 %48, %47
  store i64 %49, ptr %43, align 4
  %50 = trunc i64 %46 to i32
  store i32 %50, ptr %4, align 4
  br label %81

51:                                               ; preds = %28
  %52 = load ptr, ptr %5, align 8
  %53 = load ptr, ptr %10, align 8
  %54 = load i32, ptr %6, align 4
  %55 = call i32 @Gia_ObjFaninId0(ptr noundef %53, i32 noundef %54)
  %56 = load ptr, ptr %7, align 8
  %57 = call i32 @Cec2_ManVerify_rec(ptr noundef %52, i32 noundef %55, ptr noundef %56)
  %58 = load ptr, ptr %10, align 8
  %59 = call i32 @Gia_ObjFaninC0(ptr noundef %58)
  %60 = xor i32 %57, %59
  store i32 %60, ptr %8, align 4
  %61 = load ptr, ptr %5, align 8
  %62 = load ptr, ptr %10, align 8
  %63 = load i32, ptr %6, align 4
  %64 = call i32 @Gia_ObjFaninId1(ptr noundef %62, i32 noundef %63)
  %65 = load ptr, ptr %7, align 8
  %66 = call i32 @Cec2_ManVerify_rec(ptr noundef %61, i32 noundef %64, ptr noundef %65)
  %67 = load ptr, ptr %10, align 8
  %68 = call i32 @Gia_ObjFaninC1(ptr noundef %67)
  %69 = xor i32 %66, %68
  store i32 %69, ptr %9, align 4
  %70 = load i32, ptr %8, align 4
  %71 = load i32, ptr %9, align 4
  %72 = and i32 %70, %71
  %73 = load ptr, ptr %10, align 8
  %74 = zext i32 %72 to i64
  %75 = load i64, ptr %73, align 4
  %76 = and i64 %74, 1
  %77 = shl i64 %76, 62
  %78 = and i64 %75, -4611686018427387905
  %79 = or i64 %78, %77
  store i64 %79, ptr %73, align 4
  %80 = trunc i64 %76 to i32
  store i32 %80, ptr %4, align 4
  br label %81

81:                                               ; preds = %51, %34, %22, %16
  %82 = load i32, ptr %4, align 4
  ret i32 %82
}