; Function Attrs: nounwind uwtable
define range(i32 0, 2) i32 @Cec2_ManVerify_rec(ptr noundef %0, i32 noundef %1, ptr noundef %2) local_unnamed_addr #2 {
  %4 = getelementptr i8, ptr %0, i64 32
  %.val32 = load ptr, ptr %4, align 8
  %5 = sext i32 %1 to i64
  %6 = getelementptr inbounds %struct.Gia_Obj_t_, ptr %.val32, i64 %5
  %7 = icmp eq i32 %1, 0
  br i1 %7, label %common.ret39, label %8

8:                                                ; preds = %3
  %9 = getelementptr i8, ptr %0, i64 176
  %.val35 = load i32, ptr %9, align 8
  %10 = getelementptr i8, ptr %0, i64 616
  %.val36 = load ptr, ptr %10, align 8
  %11 = getelementptr inbounds i32, ptr %.val36, i64 %5
  %12 = load i32, ptr %11, align 4
  %.not = icmp eq i32 %12, %.val35
  br i1 %.not, label %13, label %18

13:                                               ; preds = %8
  %14 = load i64, ptr %6, align 4
  %15 = lshr i64 %14, 62
  %16 = trunc nuw nsw i64 %15 to i32
  %17 = and i32 %16, 1
  br label %common.ret39

18:                                               ; preds = %8
  store i32 %.val35, ptr %11, align 4
  %.val29 = load i64, ptr %6, align 4
  %19 = and i64 %.val29, 2684354559
  %narrow.i.not = icmp eq i64 %19, 2684354559
  br i1 %narrow.i.not, label %20, label %36

20:                                               ; preds = %18
  %.val = load ptr, ptr %4, align 8
  %21 = getelementptr i8, ptr %0, i64 416
  %.val28 = load ptr, ptr %21, align 8
  %22 = ptrtoint ptr %6 to i64
  %23 = ptrtoint ptr %.val to i64
  %24 = sub i64 %22, %23
  %25 = sdiv exact i64 %24, 12
  %sext.i = shl i64 %25, 32
  %26 = ashr exact i64 %sext.i, 30
  %27 = getelementptr inbounds i8, ptr %.val28, i64 %26
  %28 = load i32, ptr %27, align 4
  %29 = tail call signext i8 @satoko_var_polarity(ptr noundef %2, i32 noundef %28) #21
  %30 = icmp eq i8 %29, 0
  %31 = load i64, ptr %6, align 4
  %32 = select i1 %30, i64 4611686018427387904, i64 0
  %33 = and i64 %31, -4611686018427387905
  %34 = or disjoint i64 %33, %32
  store i64 %34, ptr %6, align 4
  %35 = zext i1 %30 to i32
  br label %common.ret39

common.ret39:                                     ; preds = %3, %20, %13, %36
  %common.ret39.op = phi i32 [ %53, %36 ], [ %17, %13 ], [ %35, %20 ], [ 0, %3 ]
  ret i32 %common.ret39.op

36:                                               ; preds = %18
  %37 = trunc i64 %.val29 to i32
  %38 = and i32 %37, 536870911
  %39 = sub nsw i32 %1, %38
  %40 = tail call i32 @Cec2_ManVerify_rec(ptr noundef nonnull %0, i32 noundef %39, ptr noundef %2)
  %.val30 = load i64, ptr %6, align 4
  %41 = trunc i64 %.val30 to i32
  %42 = lshr i32 %41, 29
  %43 = xor i32 %42, %40
  %44 = lshr i64 %.val30, 32
  %45 = trunc nuw i64 %44 to i32
  %46 = and i32 %45, 536870911
  %47 = sub nsw i32 %1, %46
  %48 = tail call i32 @Cec2_ManVerify_rec(ptr noundef nonnull %0, i32 noundef %47, ptr noundef %2)
  %.val31 = load i64, ptr %6, align 4
  %49 = lshr i64 %.val31, 61
  %50 = trunc nuw nsw i64 %49 to i32
  %51 = and i32 %50, 1
  %52 = xor i32 %51, %48
  %53 = and i32 %52, %43
  %54 = zext nneg i32 %53 to i64
  %55 = shl nuw nsw i64 %54, 62
  %56 = and i64 %.val31, -4611686018427387905
  %57 = or disjoint i64 %55, %56
  store i64 %57, ptr %6, align 4
  br label %common.ret39
}